#include <math.h>
#include <stdio.h>
#include <stdlib.h>
#include <string.h>

int main()
{
  int n,i,a[300],j,m;
  scanf("%d",&n);
  for(i=0;i<n;i++)
  {
     scanf("%d",&a[i]);
  }
  printf("%d",a[0]);
  for(i=1;i<n;i++)
  {
     m=0;
     for(j=0;j<i;j++)
     {
        if(a[i]==a[j])
        {
           m=1;
        }
     }
     if(m==0)
     {
        printf(",%d",a[i]);
     }
  }
  return 0;
}
